target datalayout = "e-m:e-p270:32:32-p271:32:32-p272:64:64-i64:64-i128:128-f80:128-n8:16:32:64-S128"
target triple = "x86_64-unknown-linux-gnu"

%struct.UHCIState = type { %struct.PCIDevice, %struct.MemoryRegion, %struct.USBBus, i16, i16, i16, i16, i32, i8, i8, i64, ptr, ptr, i32, i32, i8, [2 x %struct.UHCIPort], ptr, i32, %union.anon.8, i8, ptr, i32, i32 }
%struct.PCIDevice = type { %struct.DeviceState, i8, i8, ptr, ptr, ptr, ptr, ptr, i32, %struct.PCIReqIDCache, [64 x i8], [7 x %struct.PCIIORegion], %struct.AddressSpace, %struct.MemoryRegion, %struct.MemoryRegion, ptr, ptr, [3 x ptr], i8, i8, i32, i8, i32, ptr, ptr, ptr, ptr, ptr, ptr, %struct.MemoryRegion, %struct.MemoryRegion, %struct.MemoryRegion, ptr, i8, i32, i8, %struct.PCIExpressDevice, ptr, ptr, i32, i8, %struct.MemoryRegion, i32, ptr, ptr, ptr, ptr, ptr, i32 }
%struct.DeviceState = type { %struct.Object, ptr, ptr, i8, i8, i64, ptr, i32, i8, ptr, %struct.NamedGPIOListHead, %struct.NamedClockListHead, %struct.BusStateHead, i32, i32, i32, %struct.ResettableState, ptr, %struct.MemReentrancyGuard }
%struct.Object = type { ptr, ptr, ptr, i32, ptr }
%struct.NamedGPIOListHead = type { ptr }
%struct.NamedClockListHead = type { ptr }
%struct.BusStateHead = type { ptr }
%struct.ResettableState = type { i32, i8, i8 }
%struct.MemReentrancyGuard = type { i8 }
%struct.PCIReqIDCache = type { ptr, i32 }
%struct.PCIIORegion = type { i64, i64, i8, ptr, ptr }
%struct.AddressSpace = type { %struct.rcu_head, ptr, ptr, ptr, i32, i32, ptr, %union.anon, %union.anon.0 }
%struct.rcu_head = type { ptr, ptr }
%union.anon = type { %struct.QTailQLink }
%struct.QTailQLink = type { ptr, ptr }
%union.anon.0 = type { %struct.QTailQLink }
%struct.PCIExpressDevice = type { i8, i8, i8, i16, %struct.PCIEAERLog, i16, i16, i16, %struct.PCIESriovPF, %struct.PCIESriovVF }
%struct.PCIEAERLog = type { i16, i16, ptr }
%struct.PCIESriovPF = type { i16, [7 x i8], ptr, ptr }
%struct.PCIESriovVF = type { ptr, i16 }
%struct.MemoryRegion = type { %struct.Object, i8, i8, i8, i8, i8, i8, i8, i8, i8, i8, ptr, ptr, ptr, ptr, ptr, ptr, i32, i128, i64, ptr, i64, i8, i8, i8, i8, i8, ptr, i64, i32, %union.anon.1, %union.anon.2, %union.anon.3, ptr, i32, ptr, ptr, i8 }
%union.anon.1 = type { %struct.QTailQLink }
%union.anon.2 = type { %struct.QTailQLink }
%union.anon.3 = type { %struct.QTailQLink }
%struct.USBBus = type { %struct.BusState, ptr, i32, i32, i32, %union.anon.4, %union.anon.5, %union.anon.6 }
%struct.BusState = type { %struct.Object, ptr, ptr, ptr, i32, i8, i8, i32, %union.BusChildHead, %struct.BusStateEntry, %struct.ResettableState }
%union.BusChildHead = type { %struct.QTailQLink }
%struct.BusStateEntry = type { ptr, ptr }
%union.anon.4 = type { %struct.QTailQLink }
%union.anon.5 = type { %struct.QTailQLink }
%union.anon.6 = type { %struct.QTailQLink }
%struct.UHCIPort = type { %struct.USBPort, i16 }
%struct.USBPort = type { ptr, i32, i32, [16 x i8], ptr, ptr, i32, %union.anon.7 }
%union.anon.7 = type { %struct.QTailQLink }
%union.anon.8 = type { %struct.QTailQLink }
%struct.USBDevice = type { %struct.DeviceState, ptr, ptr, ptr, ptr, i32, ptr, ptr, i32, i32, i8, [32 x i8], i32, i8, i32, [8 x i8], [4096 x i8], i32, i32, i32, i32, %struct.USBEndpoint, [15 x %struct.USBEndpoint], [15 x %struct.USBEndpoint], %struct.anon.12, ptr, ptr, i32, i32, [16 x i32], ptr, [16 x ptr] }
%struct.USBEndpoint = type { i8, i8, i8, i8, i32, i32, i8, i8, ptr, %union.anon.11 }
%union.anon.11 = type { %struct.QTailQLink }
%struct.anon.12 = type { ptr }
%struct.UHCIQueue = type { i32, i32, ptr, ptr, %union.anon.13, %union.anon.14, i8 }
%union.anon.13 = type { %struct.QTailQLink }
%union.anon.14 = type { %struct.QTailQLink }
%struct.timeval = type { i64, i64 }

@.str.2 = private unnamed_addr constant [13 x i8] c"pci-uhci-usb\00", align 1
@.str.3 = private unnamed_addr constant [26 x i8] c"../qemu/hw/usb/hcd-uhci.h\00", align 1
@__func__.UHCI = private unnamed_addr constant [5 x i8] c"UHCI\00", align 1
@trace_events_enabled_count = external global i32, align 4
@message_with_timestamp = external global i8, align 1
@qemu_loglevel = external global i32, align 4
@.str.59 = private unnamed_addr constant [11 x i8] c"cancel-all\00", align 1
@.str.69 = private unnamed_addr constant [11 x i8] c"pci-device\00", align 1
@.str.70 = private unnamed_addr constant [106 x i8] c"/home/dtcxzyw/WorkSpace/Projects/compilers/llvm-opt-benchmark/bench/qemu/qemu/include/hw/pci/pci_device.h\00", align 1
@__func__.PCI_DEVICE = private unnamed_addr constant [11 x i8] c"PCI_DEVICE\00", align 1
@_TRACE_USB_UHCI_RESET_DSTATE = external global i16, align 2
@.str.71 = private unnamed_addr constant [43 x i8] c"%d@%zu.%06zu:usb_uhci_reset === RESET ===\0A\00", align 1
@.str.72 = private unnamed_addr constant [30 x i8] c"usb_uhci_reset === RESET ===\0A\00", align 1

; Function Attrs: nounwind sspstrong uwtable
define internal zeroext i1 @qemu_loglevel_mask(i32 noundef %mask) #0 {
entry:
  %mask.addr = alloca i32, align 4
  store i32 %mask, ptr %mask.addr, align 4
  %0 = load i32, ptr @qemu_loglevel, align 4
  %1 = load i32, ptr %mask.addr, align 4
  %and = and i32 %0, %1
  %cmp = icmp ne i32 %and, 0
  ret i1 %cmp
}

; Function Attrs: nounwind sspstrong uwtable
define internal void @_nocheck__trace_usb_uhci_reset() #0 {
entry:
  %_now = alloca %struct.timeval, align 8
  %0 = load i32, ptr @trace_events_enabled_count, align 4
  %tobool = icmp ne i32 %0, 0
  %lnot = xor i1 %tobool, true
  %lnot1 = xor i1 %lnot, true
  %lnot.ext = zext i1 %lnot1 to i32
  %conv = sext i32 %lnot.ext to i64
  %tobool2 = icmp ne i64 %conv, 0
  br i1 %tobool2, label %land.lhs.true, label %if.end11

land.lhs.true:                                    ; preds = %entry
  %1 = load i16, ptr @_TRACE_USB_UHCI_RESET_DSTATE, align 2
  %conv3 = zext i16 %1 to i32
  %tobool4 = icmp ne i32 %conv3, 0
  br i1 %tobool4, label %land.lhs.true5, label %if.end11

land.lhs.true5:                                   ; preds = %land.lhs.true
  %call = call zeroext i1 @qemu_loglevel_mask(i32 noundef 32768)
  br i1 %call, label %if.then, label %if.end11

if.then:                                          ; preds = %land.lhs.true5
  %2 = load i8, ptr @message_with_timestamp, align 1
  %tobool7 = trunc i8 %2 to i1
  br i1 %tobool7, label %if.then8, label %if.else

if.then8:                                         ; preds = %if.then
  %call9 = call i32 @gettimeofday(ptr noundef %_now, ptr noundef null) #7
  %call10 = call i32 @qemu_get_thread_id()
  %tv_sec = getelementptr inbounds %struct.timeval, ptr %_now, i32 0, i32 0
  %3 = load i64, ptr %tv_sec, align 8
  %tv_usec = getelementptr inbounds %struct.timeval, ptr %_now, i32 0, i32 1
  %4 = load i64, ptr %tv_usec, align 8
  call void (ptr, ...) @qemu_log(ptr noundef @.str.71, i32 noundef %call10, i64 noundef %3, i64 noundef %4)
  br label %if.end

if.else:                                          ; preds = %if.then
  call void (ptr, ...) @qemu_log(ptr noundef @.str.72)
  br label %if.end

if.end:                                           ; preds = %if.else, %if.then8
  br label %if.end11

if.end11:                                         ; preds = %if.end, %land.lhs.true5, %land.lhs.true, %entry
  ret void
}

; Function Attrs: nounwind sspstrong uwtable
define internal void @uhci_update_irq(ptr noundef %s) #0 {
entry:
  %s.addr = alloca ptr, align 8
  %level = alloca i32, align 4
  store ptr %s, ptr %s.addr, align 8
  store i32 0, ptr %level, align 4
  %0 = load ptr, ptr %s.addr, align 8
  %status2 = getelementptr inbounds %struct.UHCIState, ptr %0, i32 0, i32 9
  %1 = load i8, ptr %status2, align 1
  %conv = zext i8 %1 to i32
  %and = and i32 %conv, 1
  %tobool = icmp ne i32 %and, 0
  br i1 %tobool, label %land.lhs.true, label %lor.lhs.false

land.lhs.true:                                    ; preds = %entry
  %2 = load ptr, ptr %s.addr, align 8
  %intr = getelementptr inbounds %struct.UHCIState, ptr %2, i32 0, i32 5
  %3 = load i16, ptr %intr, align 4
  %conv1 = zext i16 %3 to i32
  %and2 = and i32 %conv1, 4
  %tobool3 = icmp ne i32 %and2, 0
  br i1 %tobool3, label %if.then, label %lor.lhs.false

lor.lhs.false:                                    ; preds = %land.lhs.true, %entry
  %4 = load ptr, ptr %s.addr, align 8
  %status24 = getelementptr inbounds %struct.UHCIState, ptr %4, i32 0, i32 9
  %5 = load i8, ptr %status24, align 1
  %conv5 = zext i8 %5 to i32
  %and6 = and i32 %conv5, 2
  %tobool7 = icmp ne i32 %and6, 0
  br i1 %tobool7, label %land.lhs.true8, label %lor.lhs.false13

land.lhs.true8:                                   ; preds = %lor.lhs.false
  %6 = load ptr, ptr %s.addr, align 8
  %intr9 = getelementptr inbounds %struct.UHCIState, ptr %6, i32 0, i32 5
  %7 = load i16, ptr %intr9, align 4
  %conv10 = zext i16 %7 to i32
  %and11 = and i32 %conv10, 8
  %tobool12 = icmp ne i32 %and11, 0
  br i1 %tobool12, label %if.then, label %lor.lhs.false13

lor.lhs.false13:                                  ; preds = %land.lhs.true8, %lor.lhs.false
  %8 = load ptr, ptr %s.addr, align 8
  %status = getelementptr inbounds %struct.UHCIState, ptr %8, i32 0, i32 4
  %9 = load i16, ptr %status, align 2
  %conv14 = zext i16 %9 to i32
  %and15 = and i32 %conv14, 2
  %tobool16 = icmp ne i32 %and15, 0
  br i1 %tobool16, label %land.lhs.true17, label %lor.lhs.false22

land.lhs.true17:                                  ; preds = %lor.lhs.false13
  %10 = load ptr, ptr %s.addr, align 8
  %intr18 = getelementptr inbounds %struct.UHCIState, ptr %10, i32 0, i32 5
  %11 = load i16, ptr %intr18, align 4
  %conv19 = zext i16 %11 to i32
  %and20 = and i32 %conv19, 1
  %tobool21 = icmp ne i32 %and20, 0
  br i1 %tobool21, label %if.then, label %lor.lhs.false22

lor.lhs.false22:                                  ; preds = %land.lhs.true17, %lor.lhs.false13
  %12 = load ptr, ptr %s.addr, align 8
  %status23 = getelementptr inbounds %struct.UHCIState, ptr %12, i32 0, i32 4
  %13 = load i16, ptr %status23, align 2
  %conv24 = zext i16 %13 to i32
  %and25 = and i32 %conv24, 4
  %tobool26 = icmp ne i32 %and25, 0
  br i1 %tobool26, label %land.lhs.true27, label %lor.lhs.false32

land.lhs.true27:                                  ; preds = %lor.lhs.false22
  %14 = load ptr, ptr %s.addr, align 8
  %intr28 = getelementptr inbounds %struct.UHCIState, ptr %14, i32 0, i32 5
  %15 = load i16, ptr %intr28, align 4
  %conv29 = zext i16 %15 to i32
  %and30 = and i32 %conv29, 2
  %tobool31 = icmp ne i32 %and30, 0
  br i1 %tobool31, label %if.then, label %lor.lhs.false32

lor.lhs.false32:                                  ; preds = %land.lhs.true27, %lor.lhs.false22
  %16 = load ptr, ptr %s.addr, align 8
  %status33 = getelementptr inbounds %struct.UHCIState, ptr %16, i32 0, i32 4
  %17 = load i16, ptr %status33, align 2
  %conv34 = zext i16 %17 to i32
  %and35 = and i32 %conv34, 8
  %tobool36 = icmp ne i32 %and35, 0
  br i1 %tobool36, label %if.then, label %lor.lhs.false37

lor.lhs.false37:                                  ; preds = %lor.lhs.false32
  %18 = load ptr, ptr %s.addr, align 8
  %status38 = getelementptr inbounds %struct.UHCIState, ptr %18, i32 0, i32 4
  %19 = load i16, ptr %status38, align 2
  %conv39 = zext i16 %19 to i32
  %and40 = and i32 %conv39, 16
  %tobool41 = icmp ne i32 %and40, 0
  br i1 %tobool41, label %if.then, label %if.end

if.then:                                          ; preds = %lor.lhs.false37, %lor.lhs.false32, %land.lhs.true27, %land.lhs.true17, %land.lhs.true8, %land.lhs.true
  store i32 1, ptr %level, align 4
  br label %if.end

if.end:                                           ; preds = %if.then, %lor.lhs.false37
  %20 = load ptr, ptr %s.addr, align 8
  %irq = getelementptr inbounds %struct.UHCIState, ptr %20, i32 0, i32 17
  %21 = load ptr, ptr %irq, align 8
  %22 = load i32, ptr %level, align 4
  call void @qemu_set_irq(ptr noundef %21, i32 noundef %22)
  ret void
}

; Function Attrs: nounwind sspstrong uwtable
define internal void @uhci_async_cancel_all(ptr noundef %s) #0 {
entry:
  %s.addr = alloca ptr, align 8
  %queue = alloca ptr, align 8
  %nq = alloca ptr, align 8
  store ptr %s, ptr %s.addr, align 8
  %0 = load ptr, ptr %s.addr, align 8
  %queues = getelementptr inbounds %struct.UHCIState, ptr %0, i32 0, i32 19
  %1 = load ptr, ptr %queues, align 8
  store ptr %1, ptr %queue, align 8
  br label %for.cond

for.cond:                                         ; preds = %for.inc, %entry
  %2 = load ptr, ptr %queue, align 8
  %tobool = icmp ne ptr %2, null
  br i1 %tobool, label %land.rhs, label %land.end

land.rhs:                                         ; preds = %for.cond
  %3 = load ptr, ptr %queue, align 8
  %next = getelementptr inbounds %struct.UHCIQueue, ptr %3, i32 0, i32 4
  %4 = load ptr, ptr %next, align 8
  store ptr %4, ptr %nq, align 8
  br label %land.end

land.end:                                         ; preds = %land.rhs, %for.cond
  %5 = phi i1 [ false, %for.cond ], [ true, %land.rhs ]
  br i1 %5, label %for.body, label %for.end

for.body:                                         ; preds = %land.end
  %6 = load ptr, ptr %queue, align 8
  call void @uhci_queue_free(ptr noundef %6, ptr noundef @.str.59)
  br label %for.inc

for.inc:                                          ; preds = %for.body
  %7 = load ptr, ptr %nq, align 8
  store ptr %7, ptr %queue, align 8
  br label %for.cond, !llvm.loop !20

for.end:                                          ; preds = %land.end
  ret void
}

; Function Attrs: nounwind sspstrong uwtable
define internal void @trace_usb_uhci_reset() #0 {
entry:
  call void @_nocheck__trace_usb_uhci_reset()
  ret void
}

; Function Attrs: nounwind sspstrong uwtable
define internal ptr @UHCI(ptr noundef %obj) #0 {
entry:
  %obj.addr = alloca ptr, align 8
  store ptr %obj, ptr %obj.addr, align 8
  %0 = load ptr, ptr %obj.addr, align 8
  %call = call ptr @object_dynamic_cast_assert(ptr noundef %0, ptr noundef @.str.2, ptr noundef @.str.3, i32 noundef 78, ptr noundef @__func__.UHCI)
  ret ptr %call
}

; Function Attrs: nounwind sspstrong uwtable
define internal ptr @PCI_DEVICE(ptr noundef %obj) #0 {
entry:
  %obj.addr = alloca ptr, align 8
  store ptr %obj, ptr %obj.addr, align 8
  %0 = load ptr, ptr %obj.addr, align 8
  %call = call ptr @object_dynamic_cast_assert(ptr noundef %0, ptr noundef @.str.69, ptr noundef @.str.70, i32 noundef 10, ptr noundef @__func__.PCI_DEVICE)
  ret ptr %call
}

; Function Attrs: nounwind sspstrong uwtable
define internal void @uhci_reset(ptr noundef %dev) #0 {
entry:
  %dev.addr = alloca ptr, align 8
  %d = alloca ptr, align 8
  %s = alloca ptr, align 8
  %pci_conf = alloca ptr, align 8
  %i = alloca i32, align 4
  %port = alloca ptr, align 8
  store ptr %dev, ptr %dev.addr, align 8
  %0 = load ptr, ptr %dev.addr, align 8
  %call = call ptr @PCI_DEVICE(ptr noundef %0)
  store ptr %call, ptr %d, align 8
  %1 = load ptr, ptr %d, align 8
  %call1 = call ptr @UHCI(ptr noundef %1)
  store ptr %call1, ptr %s, align 8
  call void @trace_usb_uhci_reset()
  %2 = load ptr, ptr %s, align 8
  %dev2 = getelementptr inbounds %struct.UHCIState, ptr %2, i32 0, i32 0
  %config = getelementptr inbounds %struct.PCIDevice, ptr %dev2, i32 0, i32 3
  %3 = load ptr, ptr %config, align 8
  store ptr %3, ptr %pci_conf, align 8
  %4 = load ptr, ptr %pci_conf, align 8
  %arrayidx = getelementptr i8, ptr %4, i64 106
  store i8 1, ptr %arrayidx, align 1
  %5 = load ptr, ptr %pci_conf, align 8
  %arrayidx3 = getelementptr i8, ptr %5, i64 107
  store i8 0, ptr %arrayidx3, align 1
  %6 = load ptr, ptr %s, align 8
  %cmd = getelementptr inbounds %struct.UHCIState, ptr %6, i32 0, i32 3
  store i16 0, ptr %cmd, align 16
  %7 = load ptr, ptr %s, align 8
  %status = getelementptr inbounds %struct.UHCIState, ptr %7, i32 0, i32 4
  store i16 32, ptr %status, align 2
  %8 = load ptr, ptr %s, align 8
  %status2 = getelementptr inbounds %struct.UHCIState, ptr %8, i32 0, i32 9
  store i8 0, ptr %status2, align 1
  %9 = load ptr, ptr %s, align 8
  %intr = getelementptr inbounds %struct.UHCIState, ptr %9, i32 0, i32 5
  store i16 0, ptr %intr, align 4
  %10 = load ptr, ptr %s, align 8
  %fl_base_addr = getelementptr inbounds %struct.UHCIState, ptr %10, i32 0, i32 7
  store i32 0, ptr %fl_base_addr, align 8
  %11 = load ptr, ptr %s, align 8
  %sof_timing = getelementptr inbounds %struct.UHCIState, ptr %11, i32 0, i32 8
  store i8 64, ptr %sof_timing, align 4
  store i32 0, ptr %i, align 4
  br label %for.cond

for.cond:                                         ; preds = %for.inc, %entry
  %12 = load i32, ptr %i, align 4
  %cmp = icmp slt i32 %12, 2
  br i1 %cmp, label %for.body, label %for.end

for.body:                                         ; preds = %for.cond
  %13 = load ptr, ptr %s, align 8
  %ports = getelementptr inbounds %struct.UHCIState, ptr %13, i32 0, i32 16
  %14 = load i32, ptr %i, align 4
  %idxprom = sext i32 %14 to i64
  %arrayidx4 = getelementptr [2 x %struct.UHCIPort], ptr %ports, i64 0, i64 %idxprom
  store ptr %arrayidx4, ptr %port, align 8
  %15 = load ptr, ptr %port, align 8
  %ctrl = getelementptr inbounds %struct.UHCIPort, ptr %15, i32 0, i32 1
  store i16 128, ptr %ctrl, align 8
  %16 = load ptr, ptr %port, align 8
  %port5 = getelementptr inbounds %struct.UHCIPort, ptr %16, i32 0, i32 0
  %dev6 = getelementptr inbounds %struct.USBPort, ptr %port5, i32 0, i32 0
  %17 = load ptr, ptr %dev6, align 8
  %tobool = icmp ne ptr %17, null
  br i1 %tobool, label %land.lhs.true, label %if.end

land.lhs.true:                                    ; preds = %for.body
  %18 = load ptr, ptr %port, align 8
  %port7 = getelementptr inbounds %struct.UHCIPort, ptr %18, i32 0, i32 0
  %dev8 = getelementptr inbounds %struct.USBPort, ptr %port7, i32 0, i32 0
  %19 = load ptr, ptr %dev8, align 8
  %attached = getelementptr inbounds %struct.USBDevice, ptr %19, i32 0, i32 13
  %20 = load i8, ptr %attached, align 8
  %tobool9 = trunc i8 %20 to i1
  br i1 %tobool9, label %if.then, label %if.end

if.then:                                          ; preds = %land.lhs.true
  %21 = load ptr, ptr %port, align 8
  %port10 = getelementptr inbounds %struct.UHCIPort, ptr %21, i32 0, i32 0
  call void @usb_port_reset(ptr noundef %port10)
  br label %if.end

if.end:                                           ; preds = %if.then, %land.lhs.true, %for.body
  br label %for.inc

for.inc:                                          ; preds = %if.end
  %22 = load i32, ptr %i, align 4
  %inc = add i32 %22, 1
  store i32 %inc, ptr %i, align 4
  br label %for.cond, !llvm.loop !24

for.end:                                          ; preds = %for.cond
  %23 = load ptr, ptr %s, align 8
  call void @uhci_async_cancel_all(ptr noundef %23)
  %24 = load ptr, ptr %s, align 8
  %bh = getelementptr inbounds %struct.UHCIState, ptr %24, i32 0, i32 12
  %25 = load ptr, ptr %bh, align 16
  call void @qemu_bh_cancel(ptr noundef %25)
  %26 = load ptr, ptr %s, align 8
  call void @uhci_update_irq(ptr noundef %26)
  ret void
}