; Function Attrs: nounwind sspstrong uwtable
define internal void @uhci_reset(ptr noundef %dev) #0 {
entry:
  %_now.i.i = alloca %struct.timeval, align 8
  %call.i = tail call ptr @object_dynamic_cast_assert(ptr noundef %dev, ptr noundef nonnull @.str.69, ptr noundef nonnull @.str.70, i32 noundef 10, ptr noundef nonnull @__func__.PCI_DEVICE) #11
  %call.i17 = tail call ptr @object_dynamic_cast_assert(ptr noundef %call.i, ptr noundef nonnull @.str.2, ptr noundef nonnull @.str.3, i32 noundef 78, ptr noundef nonnull @__func__.UHCI) #11
  call void @llvm.lifetime.start.p0(i64 16, ptr nonnull %_now.i.i)
  %0 = load i32, ptr @trace_events_enabled_count, align 4
  %tobool.i.i = icmp ne i32 %0, 0
  %1 = load i16, ptr @_TRACE_USB_UHCI_RESET_DSTATE, align 2
  %tobool4.i.i = icmp ne i16 %1, 0
  %or.cond.i.i = select i1 %tobool.i.i, i1 %tobool4.i.i, i1 false
  br i1 %or.cond.i.i, label %land.lhs.true5.i.i, label %trace_usb_uhci_reset.exit

land.lhs.true5.i.i:                               ; preds = %entry
  %2 = load i32, ptr @qemu_loglevel, align 4
  %and.i.i.i = and i32 %2, 32768
  %cmp.i.not.i.i = icmp eq i32 %and.i.i.i, 0
  br i1 %cmp.i.not.i.i, label %trace_usb_uhci_reset.exit, label %if.then.i.i

if.then.i.i:                                      ; preds = %land.lhs.true5.i.i
  %3 = load i8, ptr @message_with_timestamp, align 1
  %tobool7.i.i = trunc i8 %3 to i1
  br i1 %tobool7.i.i, label %if.then8.i.i, label %if.else.i.i

if.then8.i.i:                                     ; preds = %if.then.i.i
  %call9.i.i = call i32 @gettimeofday(ptr noundef nonnull %_now.i.i, ptr noundef null) #11
  %call10.i.i = tail call i32 @qemu_get_thread_id() #11
  %4 = load i64, ptr %_now.i.i, align 8
  %tv_usec.i.i = getelementptr inbounds nuw i8, ptr %_now.i.i, i64 8
  %5 = load i64, ptr %tv_usec.i.i, align 8
  tail call void (ptr, ...) @qemu_log(ptr noundef nonnull @.str.71, i32 noundef %call10.i.i, i64 noundef %4, i64 noundef %5) #11
  br label %trace_usb_uhci_reset.exit

if.else.i.i:                                      ; preds = %if.then.i.i
  tail call void (ptr, ...) @qemu_log(ptr noundef nonnull @.str.72) #11
  br label %trace_usb_uhci_reset.exit

trace_usb_uhci_reset.exit:                        ; preds = %entry, %land.lhs.true5.i.i, %if.then8.i.i, %if.else.i.i
  call void @llvm.lifetime.end.p0(i64 16, ptr nonnull %_now.i.i)
  %config = getelementptr inbounds nuw i8, ptr %call.i17, i64 168
  %6 = load ptr, ptr %config, align 8
  %arrayidx = getelementptr i8, ptr %6, i64 106
  store i8 1, ptr %arrayidx, align 1
  %arrayidx3 = getelementptr i8, ptr %6, i64 107
  store i8 0, ptr %arrayidx3, align 1
  %cmd = getelementptr inbounds nuw i8, ptr %call.i17, i64 3072
  store i16 0, ptr %cmd, align 16
  %status = getelementptr inbounds nuw i8, ptr %call.i17, i64 3074
  store i16 32, ptr %status, align 2
  %status2 = getelementptr inbounds nuw i8, ptr %call.i17, i64 3085
  store i8 0, ptr %status2, align 1
  %intr = getelementptr inbounds nuw i8, ptr %call.i17, i64 3076
  store i16 0, ptr %intr, align 4
  %fl_base_addr = getelementptr inbounds nuw i8, ptr %call.i17, i64 3080
  store i32 0, ptr %fl_base_addr, align 8
  %sof_timing = getelementptr inbounds nuw i8, ptr %call.i17, i64 3084
  store i8 64, ptr %sof_timing, align 4
  %ports = getelementptr inbounds nuw i8, ptr %call.i17, i64 3128
  br label %for.body

for.body:                                         ; preds = %trace_usb_uhci_reset.exit, %for.inc
  %cmp = phi i1 [ true, %trace_usb_uhci_reset.exit ], [ false, %for.inc ]
  %indvars.iv = phi i64 [ 0, %trace_usb_uhci_reset.exit ], [ 1, %for.inc ]
  %arrayidx4 = getelementptr [2 x %struct.UHCIPort], ptr %ports, i64 0, i64 %indvars.iv
  %ctrl = getelementptr inbounds nuw i8, ptr %arrayidx4, i64 72
  store i16 128, ptr %ctrl, align 8
  %7 = load ptr, ptr %arrayidx4, align 8
  %tobool.not = icmp eq ptr %7, null
  br i1 %tobool.not, label %for.inc, label %land.lhs.true

land.lhs.true:                                    ; preds = %for.body
  %attached = getelementptr inbounds nuw i8, ptr %7, i64 264
  %8 = load i8, ptr %attached, align 8
  %tobool9 = trunc i8 %8 to i1
  br i1 %tobool9, label %if.then, label %for.inc

if.then:                                          ; preds = %land.lhs.true
  tail call void @usb_port_reset(ptr noundef nonnull %arrayidx4) #11
  br label %for.inc

for.inc:                                          ; preds = %for.body, %land.lhs.true, %if.then
  br i1 %cmp, label %for.body, label %for.end, !llvm.loop !21

for.end:                                          ; preds = %for.inc
  %9 = getelementptr i8, ptr %call.i17, i64 3304
  %call1.val = load ptr, ptr %9, align 8
  %tobool.not1.i = icmp eq ptr %call1.val, null
  br i1 %tobool.not1.i, label %uhci_async_cancel_all.exit, label %land.rhs.i

land.rhs.i:                                       ; preds = %for.end, %land.rhs.i
  %queue.02.i = phi ptr [ %10, %land.rhs.i ], [ %call1.val, %for.end ]
  %next.i = getelementptr inbounds nuw i8, ptr %queue.02.i, i64 24
  %10 = load ptr, ptr %next.i, align 8
  tail call fastcc void @uhci_queue_free(ptr noundef nonnull %queue.02.i, ptr noundef nonnull @.str.59)
  %tobool.not.i = icmp eq ptr %10, null
  br i1 %tobool.not.i, label %uhci_async_cancel_all.exit, label %land.rhs.i, !llvm.loop !5

uhci_async_cancel_all.exit:                       ; preds = %land.rhs.i, %for.end
  %bh = getelementptr inbounds nuw i8, ptr %call.i17, i64 3104
  %11 = load ptr, ptr %bh, align 16
  tail call void @qemu_bh_cancel(ptr noundef %11) #11
  %12 = load i8, ptr %status2, align 1
  %13 = and i8 %12, 1
  %tobool.not.i18 = icmp eq i8 %13, 0
  br i1 %tobool.not.i18, label %lor.lhs.false.i, label %land.lhs.true.i

land.lhs.true.i:                                  ; preds = %uhci_async_cancel_all.exit
  %14 = load i16, ptr %intr, align 4
  %15 = and i16 %14, 4
  %tobool3.not.i = icmp eq i16 %15, 0
  br i1 %tobool3.not.i, label %lor.lhs.false.i, label %if.then.i

lor.lhs.false.i:                                  ; preds = %land.lhs.true.i, %uhci_async_cancel_all.exit
  %16 = and i8 %12, 2
  %tobool7.not.i = icmp eq i8 %16, 0
  br i1 %tobool7.not.i, label %lor.lhs.false13.i, label %land.lhs.true8.i

land.lhs.true8.i:                                 ; preds = %lor.lhs.false.i
  %17 = load i16, ptr %intr, align 4
  %18 = and i16 %17, 8
  %tobool12.not.i = icmp eq i16 %18, 0
  br i1 %tobool12.not.i, label %lor.lhs.false13.i, label %if.then.i

lor.lhs.false13.i:                                ; preds = %land.lhs.true8.i, %lor.lhs.false.i
  %19 = load i16, ptr %status, align 2
  %20 = and i16 %19, 2
  %tobool16.not.i = icmp eq i16 %20, 0
  br i1 %tobool16.not.i, label %lor.lhs.false22.i, label %land.lhs.true17.i

land.lhs.true17.i:                                ; preds = %lor.lhs.false13.i
  %21 = load i16, ptr %intr, align 4
  %22 = and i16 %21, 1
  %tobool21.not.i = icmp eq i16 %22, 0
  br i1 %tobool21.not.i, label %lor.lhs.false22.i, label %if.then.i

lor.lhs.false22.i:                                ; preds = %land.lhs.true17.i, %lor.lhs.false13.i
  %23 = and i16 %19, 4
  %tobool26.not.i = icmp eq i16 %23, 0
  br i1 %tobool26.not.i, label %lor.lhs.false32.i, label %land.lhs.true27.i

land.lhs.true27.i:                                ; preds = %lor.lhs.false22.i
  %24 = load i16, ptr %intr, align 4
  %25 = and i16 %24, 2
  %26 = and i16 %19, 24
  %27 = or disjoint i16 %25, %26
  %or.cond11.i = icmp eq i16 %27, 0
  br i1 %or.cond11.i, label %uhci_update_irq.exit, label %if.then.i

lor.lhs.false32.i:                                ; preds = %lor.lhs.false22.i
  %.old.i = and i16 %19, 24
  %or.cond.old.i = icmp eq i16 %.old.i, 0
  br i1 %or.cond.old.i, label %uhci_update_irq.exit, label %if.then.i

if.then.i:                                        ; preds = %lor.lhs.false32.i, %land.lhs.true27.i, %land.lhs.true17.i, %land.lhs.true8.i, %land.lhs.true.i
  br label %uhci_update_irq.exit

uhci_update_irq.exit:                             ; preds = %land.lhs.true27.i, %lor.lhs.false32.i, %if.then.i
  %level.0.i = phi i32 [ 1, %if.then.i ], [ 0, %lor.lhs.false32.i ], [ 0, %land.lhs.true27.i ]
  %irq.i = getelementptr inbounds nuw i8, ptr %call.i17, i64 3288
  %28 = load ptr, ptr %irq.i, align 8
  tail call void @qemu_set_irq(ptr noundef %28, i32 noundef %level.0.i) #11
  ret void
}